target datalayout = "e-m:e-p270:32:32-p271:32:32-p272:64:64-i64:64-i128:128-f80:128-n8:16:32:64-S128"
target triple = "x86_64-pc-linux-gnu"

@hf_cdma2k_ext_scm_ind = internal global i32 0, align 4
@hf_cdma2k_scm_dual_mode = internal global i32 0, align 4
@hf_cdma2k_scm_slotted_class = internal global i32 0, align 4
@hf_cdma2k_scm_meid_sup = internal global i32 0, align 4
@hf_cdma2k_scm_25mhz_bw = internal global i32 0, align 4
@hf_cdma2k_scm_trans = internal global i32 0, align 4
@hf_cdma2k_scm_pow_class = internal global i32 0, align 4
@ett_cdma2000_scm = internal global i32 0, align 4
@.str.1217 = private unnamed_addr constant [25 x i8] c"SCM - Station Class Mark\00", align 1

; Function Attrs: null_pointer_is_valid sspstrong uwtable
define internal void @dissect_cdma2000_scm(ptr noundef %0, ptr noundef %1, i32 noundef %2) #0 {
  %4 = alloca ptr, align 8
  %5 = alloca ptr, align 8
  %6 = alloca i32, align 4
  %7 = alloca ptr, align 8
  store ptr %0, ptr %4, align 8
  store ptr %1, ptr %5, align 8
  store i32 %2, ptr %6, align 4
  call void @llvm.lifetime.start.p0(i64 8, ptr %7) #4
  %8 = load ptr, ptr %5, align 8
  %9 = load ptr, ptr %4, align 8
  %10 = load i32, ptr %6, align 4
  %11 = lshr i32 %10, 3
  %12 = load i32, ptr @ett_cdma2000_scm, align 4
  %13 = call ptr @proto_tree_add_subtree(ptr noundef %8, ptr noundef %9, i32 noundef %11, i32 noundef 2, i32 noundef %12, ptr noundef null, ptr noundef @.str.1217)
  store ptr %13, ptr %7, align 8
  %14 = load ptr, ptr %7, align 8
  %15 = load i32, ptr @hf_cdma2k_ext_scm_ind, align 4
  %16 = load ptr, ptr %4, align 8
  %17 = load i32, ptr %6, align 4
  %18 = call ptr @proto_tree_add_bits_item(ptr noundef %14, i32 noundef %15, ptr noundef %16, i32 noundef %17, i32 noundef 1, i32 noundef 0)
  %19 = load i32, ptr %6, align 4
  %20 = add i32 %19, 1
  store i32 %20, ptr %6, align 4
  %21 = load ptr, ptr %7, align 8
  %22 = load i32, ptr @hf_cdma2k_scm_dual_mode, align 4
  %23 = load ptr, ptr %4, align 8
  %24 = load i32, ptr %6, align 4
  %25 = call ptr @proto_tree_add_bits_item(ptr noundef %21, i32 noundef %22, ptr noundef %23, i32 noundef %24, i32 noundef 1, i32 noundef 0)
  %26 = load i32, ptr %6, align 4
  %27 = add i32 %26, 1
  store i32 %27, ptr %6, align 4
  %28 = load ptr, ptr %7, align 8
  %29 = load i32, ptr @hf_cdma2k_scm_slotted_class, align 4
  %30 = load ptr, ptr %4, align 8
  %31 = load i32, ptr %6, align 4
  %32 = call ptr @proto_tree_add_bits_item(ptr noundef %28, i32 noundef %29, ptr noundef %30, i32 noundef %31, i32 noundef 1, i32 noundef 0)
  %33 = load i32, ptr %6, align 4
  %34 = add i32 %33, 1
  store i32 %34, ptr %6, align 4
  %35 = load ptr, ptr %7, align 8
  %36 = load i32, ptr @hf_cdma2k_scm_meid_sup, align 4
  %37 = load ptr, ptr %4, align 8
  %38 = load i32, ptr %6, align 4
  %39 = call ptr @proto_tree_add_bits_item(ptr noundef %35, i32 noundef %36, ptr noundef %37, i32 noundef %38, i32 noundef 1, i32 noundef 0)
  %40 = load i32, ptr %6, align 4
  %41 = add i32 %40, 1
  store i32 %41, ptr %6, align 4
  %42 = load ptr, ptr %7, align 8
  %43 = load i32, ptr @hf_cdma2k_scm_25mhz_bw, align 4
  %44 = load ptr, ptr %4, align 8
  %45 = load i32, ptr %6, align 4
  %46 = call ptr @proto_tree_add_bits_item(ptr noundef %42, i32 noundef %43, ptr noundef %44, i32 noundef %45, i32 noundef 1, i32 noundef 0)
  %47 = load i32, ptr %6, align 4
  %48 = add i32 %47, 1
  store i32 %48, ptr %6, align 4
  %49 = load ptr, ptr %7, align 8
  %50 = load i32, ptr @hf_cdma2k_scm_trans, align 4
  %51 = load ptr, ptr %4, align 8
  %52 = load i32, ptr %6, align 4
  %53 = call ptr @proto_tree_add_bits_item(ptr noundef %49, i32 noundef %50, ptr noundef %51, i32 noundef %52, i32 noundef 1, i32 noundef 0)
  %54 = load i32, ptr %6, align 4
  %55 = add i32 %54, 1
  store i32 %55, ptr %6, align 4
  %56 = load ptr, ptr %7, align 8
  %57 = load i32, ptr @hf_cdma2k_scm_pow_class, align 4
  %58 = load ptr, ptr %4, align 8
  %59 = load i32, ptr %6, align 4
  %60 = call ptr @proto_tree_add_bits_item(ptr noundef %56, i32 noundef %57, ptr noundef %58, i32 noundef %59, i32 noundef 2, i32 noundef 0)
  call void @llvm.lifetime.end.p0(i64 8, ptr %7) #4
  ret void
}