; Function Attrs: null_pointer_is_valid sspstrong uwtable
define internal fastcc void @dissect_cdma2000_scm(ptr noundef %0, ptr noundef %1, i32 noundef %2) unnamed_addr #0 {
  %4 = lshr i32 %2, 3
  %5 = load i32, ptr @ett_cdma2000_scm, align 4
  %6 = tail call ptr @proto_tree_add_subtree(ptr noundef %1, ptr noundef %0, i32 noundef %4, i32 noundef 2, i32 noundef %5, ptr noundef null, ptr noundef nonnull @.str.1217)
  %7 = load i32, ptr @hf_cdma2k_ext_scm_ind, align 4
  %8 = tail call ptr @proto_tree_add_bits_item(ptr noundef %6, i32 noundef %7, ptr noundef %0, i32 noundef %2, i32 noundef 1, i32 noundef 0)
  %9 = add i32 %2, 1
  %10 = load i32, ptr @hf_cdma2k_scm_dual_mode, align 4
  %11 = tail call ptr @proto_tree_add_bits_item(ptr noundef %6, i32 noundef %10, ptr noundef %0, i32 noundef %9, i32 noundef 1, i32 noundef 0)
  %12 = add i32 %2, 2
  %13 = load i32, ptr @hf_cdma2k_scm_slotted_class, align 4
  %14 = tail call ptr @proto_tree_add_bits_item(ptr noundef %6, i32 noundef %13, ptr noundef %0, i32 noundef %12, i32 noundef 1, i32 noundef 0)
  %15 = add i32 %2, 3
  %16 = load i32, ptr @hf_cdma2k_scm_meid_sup, align 4
  %17 = tail call ptr @proto_tree_add_bits_item(ptr noundef %6, i32 noundef %16, ptr noundef %0, i32 noundef %15, i32 noundef 1, i32 noundef 0)
  %18 = add i32 %2, 4
  %19 = load i32, ptr @hf_cdma2k_scm_25mhz_bw, align 4
  %20 = tail call ptr @proto_tree_add_bits_item(ptr noundef %6, i32 noundef %19, ptr noundef %0, i32 noundef %18, i32 noundef 1, i32 noundef 0)
  %21 = add i32 %2, 5
  %22 = load i32, ptr @hf_cdma2k_scm_trans, align 4
  %23 = tail call ptr @proto_tree_add_bits_item(ptr noundef %6, i32 noundef %22, ptr noundef %0, i32 noundef %21, i32 noundef 1, i32 noundef 0)
  %24 = add i32 %2, 6
  %25 = load i32, ptr @hf_cdma2k_scm_pow_class, align 4
  %26 = tail call ptr @proto_tree_add_bits_item(ptr noundef %6, i32 noundef %25, ptr noundef %0, i32 noundef %24, i32 noundef 2, i32 noundef 0)
  ret void
}